target datalayout = "e-m:e-p270:32:32-p271:32:32-p272:64:64-i64:64-i128:128-f80:128-n8:16:32:64-S128"
target triple = "x86_64-pc-linux-gnu"

%class.QFlags = type { i32 }
%class.QString = type { %struct.QArrayDataPointer }
%struct.QArrayDataPointer = type { ptr, ptr, i64 }
%class.EditorFileDialog = type <{ %class.QLineEdit, ptr, %class.QModelIndex, i32, [4 x i8], %class.QString, %class.QString, %class.QString, %class.QFlags, [4 x i8] }>
%class.QLineEdit = type { %class.QWidget }
%class.QWidget = type { %class.QObject, %class.QPaintDevice.base, ptr }
%class.QObject = type { ptr, %class.QScopedPointer }
%class.QScopedPointer = type { ptr }
%class.QPaintDevice.base = type <{ ptr, i16 }>
%class.QModelIndex = type { i32, i32, i64, ptr }

; Function Attrs: inlinehint mustprogress nounwind null_pointer_is_valid sspstrong uwtable
define linkonce_odr noundef align 4 dereferenceable(4) ptr @_ZN6QFlagsIN11QFileDialog6OptionEEaNEi(ptr noundef align 4 dereferenceable_or_null(4) %0, i32 noundef %1) #5 comdat align 2 {
  %3 = alloca ptr, align 8
  %4 = alloca i32, align 4
  store ptr %0, ptr %3, align 8
  store i32 %1, ptr %4, align 4
  %5 = load ptr, ptr %3, align 8
  %6 = load i32, ptr %4, align 4
  %7 = getelementptr inbounds nuw %class.QFlags, ptr %5, i32 0, i32 0
  %8 = load i32, ptr %7, align 4
  %9 = and i32 %8, %6
  store i32 %9, ptr %7, align 4
  ret ptr %5
}

; Function Attrs: inlinehint mustprogress nounwind null_pointer_is_valid sspstrong uwtable
define linkonce_odr noundef align 4 dereferenceable(4) ptr @_ZN6QFlagsIN11QFileDialog6OptionEEoRES1_(ptr noundef align 4 dereferenceable_or_null(4) %0, i32 noundef %1) #5 comdat align 2 {
  %3 = alloca ptr, align 8
  %4 = alloca i32, align 4
  store ptr %0, ptr %3, align 8
  store i32 %1, ptr %4, align 4
  %5 = load ptr, ptr %3, align 8
  %6 = load i32, ptr %4, align 4
  %7 = getelementptr inbounds nuw %class.QFlags, ptr %5, i32 0, i32 0
  %8 = load i32, ptr %7, align 4
  %9 = or i32 %8, %6
  store i32 %9, ptr %7, align 4
  ret ptr %5
}

; Function Attrs: mustprogress nounwind null_pointer_is_valid sspstrong uwtable
define void @_ZN16EditorFileDialog9setOptionEN11QFileDialog6OptionEb(ptr noundef align 8 dereferenceable_or_null(156) %0, i32 noundef %1, i1 noundef zeroext %2) #9 align 2 {
  %4 = alloca ptr, align 8
  %5 = alloca i32, align 4
  %6 = alloca i8, align 1
  store ptr %0, ptr %4, align 8
  store i32 %1, ptr %5, align 4
  %7 = zext i1 %2 to i8
  store i8 %7, ptr %6, align 1
  %8 = load ptr, ptr %4, align 8
  %9 = load i8, ptr %6, align 1, !range !6, !noundef !7
  %10 = trunc i8 %9 to i1
  br i1 %10, label %11, label %15

11:                                               ; preds = %3
  %12 = load i32, ptr %5, align 4
  %13 = getelementptr inbounds nuw %class.EditorFileDialog, ptr %8, i32 0, i32 8
  %14 = call noundef align 4 dereferenceable(4) ptr @_ZN6QFlagsIN11QFileDialog6OptionEEoRES1_(ptr noundef align 4 dereferenceable_or_null(4) %13, i32 noundef %12) #12
  br label %20

15:                                               ; preds = %3
  %16 = load i32, ptr %5, align 4
  %17 = xor i32 %16, -1
  %18 = getelementptr inbounds nuw %class.EditorFileDialog, ptr %8, i32 0, i32 8
  %19 = call noundef align 4 dereferenceable(4) ptr @_ZN6QFlagsIN11QFileDialog6OptionEEaNEi(ptr noundef align 4 dereferenceable_or_null(4) %18, i32 noundef %17) #12
  br label %20

20:                                               ; preds = %15, %11
  ret void
}