; Function Attrs: mustprogress nofree norecurse nosync nounwind null_pointer_is_valid sspstrong willreturn memory(argmem: readwrite) uwtable
define void @_ZN16EditorFileDialog9setOptionEN11QFileDialog6OptionEb(ptr noundef align 8 captures(none) dereferenceable_or_null(156) %0, i32 noundef %1, i1 noundef zeroext %2) local_unnamed_addr #8 align 2 {
  br i1 %2, label %4, label %8

4:                                                ; preds = %3
  %5 = getelementptr inbounds nuw i8, ptr %0, i64 152
  %6 = load i32, ptr %5, align 8
  %7 = or i32 %6, %1
  store i32 %7, ptr %5, align 8
  br label %13

8:                                                ; preds = %3
  %9 = xor i32 %1, -1
  %10 = getelementptr inbounds nuw i8, ptr %0, i64 152
  %11 = load i32, ptr %10, align 8
  %12 = and i32 %11, %9
  store i32 %12, ptr %10, align 8
  br label %13

13:                                               ; preds = %8, %4
  ret void
}